(dp0
cmuscle_utils
MUSCLE_NAME
p1
(I2
tp2
Rp3
(dp4
S'A'
p5
F0.34063121289145154
sS'optimal_fiber_length'
p6
F198.75287861486618
sS'd'
p7
F0.047758886295313344
sS'phi_v'
p8
F0.7546924676409528
sS'max_length'
p9
F812.0024869903081
sS'tensor_slack_length'
p10
F155.8495437418312
sS'alpha'
p11
F0.837965739112466
sS'Sse'
p12
F6.254488528143455
sS'C2'
p13
F-0.8700898940963526
sS'C1'
p14
F0.41899157932114406
sS'max_force'
p15
F5157.635629655242
sS'phi_m'
p16
F0.8376045870502349
sS'Spe'
p17
F8.707655806582455
ssS'MSE'
p18
(F129.27597017441144
tp19
sg1
(I1
tp20
Rp21
(dp22
g5
F0.2696581479411191
sg6
F219.56729279620362
sg7
F0.029099469930677274
sg8
F0.35610698166456556
sg9
F630.1148933309371
sg10
F226.39797040318612
sg11
F0.8919922233227826
sg12
F12.238112911571836
sg13
F0.24064916936991665
sg14
F-0.873354602592336
sg15
F3484.533825790269
sg16
F0.14752071755591986
sg17
F9.182542499526797
ss.