(dp0
cmuscle_utils
MUSCLE_NAME
p1
(I3
tp2
Rp3
(dp4
S'A'
p5
F0.9716693875673907
sS'optimal_fiber_length'
p6
F233.45636816018106
sS'd'
p7
F0.07682425342751614
sS'phi_v'
p8
F0.1420740502415388
sS'max_length'
p9
F790.686806689883
sS'tensor_slack_length'
p10
F280.28448944347525
sS'alpha'
p11
F0.9993832830780978
sS'Sse'
p12
F9.337594426544687
sS'C2'
p13
F-0.553337033892987
sS'C1'
p14
F-0.7138928738488204
sS'max_force'
p15
F3121.0480038011424
sS'phi_m'
p16
F0.937145298658535
sS'Spe'
p17
F1.3222220557943274
ssg1
(I2
tp18
Rp19
(dp20
g5
F0.5644936563975563
sg6
F147.92485098557967
sg7
F0.07278852613593656
sg8
F0.2009176667518574
sg9
F863.6289243116046
sg10
F203.420976630753
sg11
F0.9265295494296755
sg12
F9.918781978384896
sg13
F-0.588271398436973
sg14
F-0.06673627954798889
sg15
F1511.1184638220384
sg16
F0.10860114374692637
sg17
F14.121318416746501
ssS'MSE'
p21
(F101.18226884209565
tp22
sg1
(I1
tp23
Rp24
(dp25
g5
F0.24006229201818188
sg6
F190.7419514602214
sg7
F0.034792142113262266
sg8
F0.7499818892477382
sg9
F581.2024251500663
sg10
F322.6088330601524
sg11
F0.9530402756345868
sg12
F1.6132454457544085
sg13
F0.55158191971055
sg14
F-0.6151116167324844
sg15
F4293.309543700516
sg16
F0.5384921655488352
sg17
F2.910201038890733
ssg1
(I4
tp26
Rp27
(dp28
g5
F0.052553631982363916
sg6
F123.99551959042121
sg7
F0.012617554049529894
sg8
F0.9174716361770632
sg9
F305.6628988924782
sg10
F102.27114460380236
sg11
F0.7350214425011998
sg12
F15.52197430401528
sg13
F-0.1559304170417093
sg14
F-0.9228280280359016
sg15
F4692.656828020066
sg16
F0.9314944987973519
sg17
F16.608505331055042
ss.